; Function Attrs: mustprogress nofree norecurse nosync nounwind willreturn memory(argmem: write) uwtable
define internal void @_ZL11_UTF16ResetP10UConverter21UConverterResetChoice(ptr noundef writeonly captures(none) %0, i32 noundef %1) #8 {
  %3 = icmp slt i32 %1, 2
  br i1 %3, label %4, label %.thread

4:                                                ; preds = %2
  %5 = getelementptr inbounds nuw i8, ptr %0, i64 76
  store i32 0, ptr %5, align 4, !tbaa !12
  %.not = icmp eq i32 %1, 1
  br i1 %.not, label %7, label %.thread

.thread:                                          ; preds = %2, %4
  %6 = getelementptr inbounds nuw i8, ptr %0, i64 80
  store i32 1, ptr %6, align 8, !tbaa !13
  br label %7

7:                                                ; preds = %.thread, %4
  ret void
}